#include <math.h>
#include <stdio.h>
#include <stdlib.h>
#include <string.h>

main()
{
      int a,b;
      scanf("%d",&a);
      if(a==1)
      printf("End\n");
      else 
      {for(;a!=1;)
      {
      if(a%2==0)
      {b=a/2;
      printf("%d/2=%d\n",a,b);
      a=b;}
      else 
      {b=3*a+1;
      printf("%d*3+1=%d\n",a,b);
      a=b;}
           }
      printf("End\n");
           }
      
      }